target datalayout = "e-m:e-p270:32:32-p271:32:32-p272:64:64-i64:64-i128:128-f80:128-n8:16:32:64-S128"
target triple = "x86_64-pc-linux-gnu"

%struct.expert_field = type { i32, i32 }
%struct.nstime_t = type { i64, i32 }
%struct._packet_info = type { ptr, ptr, i32, i32, %struct.nstime_t, %struct.nstime_t, %struct.nstime_t, i32, ptr, ptr, ptr, ptr, %struct._address, %struct._address, %struct._address, %struct._address, %struct._address, %struct._address, i32, ptr, i32, %struct.anon.0, i32, i32, i32, i32, ptr, i32, ptr, ptr, i16, i16, i32, i32, i16, i32, i32, ptr, ptr, ptr, i8, i8, i16, i16, i16, i32, i16, i16, ptr, ptr, ptr, ptr, ptr, i32 }
%struct._address = type { i32, i32, ptr, ptr }
%struct.anon.0 = type { i8, [3 x i8] }
%struct.mbim_conv_info = type { ptr, ptr, i32, i32, i32 }
%struct.mbim_pair_list = type { i32, i32 }

@hf_mbim_subscr_ready_status_ready_state = internal global i32 0, align 4
@hf_mbim_subscr_ready_status_flags = internal global i32 0, align 4
@hf_mbim_subscr_ready_status_susbcr_id_offset = internal global i32 0, align 4
@hf_mbim_subscr_ready_status_susbcr_id_size = internal global i32 0, align 4
@hf_mbim_subscr_ready_status_sim_icc_id_offset = internal global i32 0, align 4
@hf_mbim_subscr_ready_status_sim_icc_id_size = internal global i32 0, align 4
@hf_mbim_subscr_ready_status_ready_info = internal global i32 0, align 4
@hf_mbim_subscr_ready_status_elem_count = internal global i32 0, align 4
@hf_mbim_subscr_ready_status_tel_nb_offset = internal global i32 0, align 4
@hf_mbim_subscr_ready_status_tel_nb_size = internal global i32 0, align 4
@hf_mbim_subscr_ready_status_susbcr_id = internal global i32 0, align 4
@hf_mbim_subscr_ready_status_sim_icc_id = internal global i32 0, align 4
@hf_mbim_subscr_ready_status_tel_nb = internal global i32 0, align 4
@hf_mbim_ms_slot_id = internal global i32 0, align 4
@ett_mbim_bitmap = internal global i32 0, align 4
@ett_mbim_pair_list = internal global i32 0, align 4
@ei_mbim_oversized_string = internal global %struct.expert_field zeroinitializer, align 4
@preferred_mbim_extended_version = internal global i32 1, align 4
@.str.2582 = private unnamed_addr constant [27 x i8] c"Telephone Numbers Ref List\00", align 1

; Function Attrs: nounwind uwtable
define internal void @mbim_dissect_subscriber_ready_status(ptr noundef %0, ptr noundef %1, ptr noundef %2, i32 noundef %3, ptr noundef %4) #0 {
  %6 = alloca ptr, align 8
  %7 = alloca ptr, align 8
  %8 = alloca ptr, align 8
  %9 = alloca i32, align 4
  %10 = alloca ptr, align 8
  %11 = alloca ptr, align 8
  %12 = alloca i32, align 4
  %13 = alloca i32, align 4
  %14 = alloca i32, align 4
  %15 = alloca i32, align 4
  %16 = alloca i32, align 4
  %17 = alloca i32, align 4
  %18 = alloca i32, align 4
  %19 = alloca ptr, align 8
  %20 = alloca ptr, align 8
  %21 = alloca %struct.mbim_pair_list, align 4
  %22 = alloca ptr, align 8
  store ptr %0, ptr %6, align 8
  store ptr %1, ptr %7, align 8
  store ptr %2, ptr %8, align 8
  store i32 %3, ptr %9, align 4
  store ptr %4, ptr %10, align 8
  store ptr null, ptr %20, align 8
  %23 = load i32, ptr %9, align 4
  store i32 %23, ptr %12, align 4
  %24 = load ptr, ptr %8, align 8
  %25 = load i32, ptr @hf_mbim_subscr_ready_status_ready_state, align 4
  %26 = load ptr, ptr %6, align 8
  %27 = load i32, ptr %9, align 4
  %28 = call ptr @proto_tree_add_item(ptr noundef %24, i32 noundef %25, ptr noundef %26, i32 noundef %27, i32 noundef 4, i32 noundef -2147483648)
  %29 = load i32, ptr %9, align 4
  %30 = add i32 %29, 4
  store i32 %30, ptr %9, align 4
  %31 = load ptr, ptr %10, align 8
  %32 = getelementptr inbounds %struct.mbim_conv_info, ptr %31, i32 0, i32 4
  %33 = load i32, ptr %32, align 8
  %34 = icmp uge i32 %33, 3
  br i1 %34, label %43, label %35

35:                                               ; preds = %5
  %36 = load ptr, ptr %10, align 8
  %37 = getelementptr inbounds %struct.mbim_conv_info, ptr %36, i32 0, i32 4
  %38 = load i32, ptr %37, align 8
  %39 = icmp eq i32 %38, 0
  br i1 %39, label %40, label %44

40:                                               ; preds = %35
  %41 = load i32, ptr @preferred_mbim_extended_version, align 4
  %42 = icmp sge i32 %41, 3
  br i1 %42, label %43, label %44

43:                                               ; preds = %40, %5
  br i1 true, label %45, label %54

44:                                               ; preds = %40, %35
  br i1 false, label %45, label %54

45:                                               ; preds = %44, %43
  %46 = load ptr, ptr %8, align 8
  %47 = load ptr, ptr %6, align 8
  %48 = load i32, ptr %9, align 4
  %49 = load i32, ptr @hf_mbim_subscr_ready_status_flags, align 4
  %50 = load i32, ptr @ett_mbim_bitmap, align 4
  %51 = call ptr @proto_tree_add_bitmask(ptr noundef %46, ptr noundef %47, i32 noundef %48, i32 noundef %49, i32 noundef %50, ptr noundef @mbim_subscr_ready_status_flags_fields, i32 noundef -2147483648)
  %52 = load i32, ptr %9, align 4
  %53 = add i32 %52, 4
  store i32 %53, ptr %9, align 4
  br label %54

54:                                               ; preds = %45, %44, %43
  %55 = load ptr, ptr %8, align 8
  %56 = load i32, ptr @hf_mbim_subscr_ready_status_susbcr_id_offset, align 4
  %57 = load ptr, ptr %6, align 8
  %58 = load i32, ptr %9, align 4
  %59 = call ptr @proto_tree_add_item_ret_uint(ptr noundef %55, i32 noundef %56, ptr noundef %57, i32 noundef %58, i32 noundef 4, i32 noundef -2147483648, ptr noundef %14)
  %60 = load i32, ptr %9, align 4
  %61 = add i32 %60, 4
  store i32 %61, ptr %9, align 4
  %62 = load ptr, ptr %8, align 8
  %63 = load i32, ptr @hf_mbim_subscr_ready_status_susbcr_id_size, align 4
  %64 = load ptr, ptr %6, align 8
  %65 = load i32, ptr %9, align 4
  %66 = call ptr @proto_tree_add_item_ret_uint(ptr noundef %62, i32 noundef %63, ptr noundef %64, i32 noundef %65, i32 noundef 4, i32 noundef -2147483648, ptr noundef %15)
  %67 = load i32, ptr %9, align 4
  %68 = add i32 %67, 4
  store i32 %68, ptr %9, align 4
  %69 = load ptr, ptr %8, align 8
  %70 = load i32, ptr @hf_mbim_subscr_ready_status_sim_icc_id_offset, align 4
  %71 = load ptr, ptr %6, align 8
  %72 = load i32, ptr %9, align 4
  %73 = call ptr @proto_tree_add_item_ret_uint(ptr noundef %69, i32 noundef %70, ptr noundef %71, i32 noundef %72, i32 noundef 4, i32 noundef -2147483648, ptr noundef %16)
  %74 = load i32, ptr %9, align 4
  %75 = add i32 %74, 4
  store i32 %75, ptr %9, align 4
  %76 = load ptr, ptr %8, align 8
  %77 = load i32, ptr @hf_mbim_subscr_ready_status_sim_icc_id_size, align 4
  %78 = load ptr, ptr %6, align 8
  %79 = load i32, ptr %9, align 4
  %80 = call ptr @proto_tree_add_item_ret_uint(ptr noundef %76, i32 noundef %77, ptr noundef %78, i32 noundef %79, i32 noundef 4, i32 noundef -2147483648, ptr noundef %17)
  %81 = load i32, ptr %9, align 4
  %82 = add i32 %81, 4
  store i32 %82, ptr %9, align 4
  %83 = load ptr, ptr %8, align 8
  %84 = load i32, ptr @hf_mbim_subscr_ready_status_ready_info, align 4
  %85 = load ptr, ptr %6, align 8
  %86 = load i32, ptr %9, align 4
  %87 = call ptr @proto_tree_add_item(ptr noundef %83, i32 noundef %84, ptr noundef %85, i32 noundef %86, i32 noundef 4, i32 noundef -2147483648)
  %88 = load i32, ptr %9, align 4
  %89 = add i32 %88, 4
  store i32 %89, ptr %9, align 4
  %90 = load ptr, ptr %8, align 8
  %91 = load i32, ptr @hf_mbim_subscr_ready_status_elem_count, align 4
  %92 = load ptr, ptr %6, align 8
  %93 = load i32, ptr %9, align 4
  %94 = call ptr @proto_tree_add_item_ret_uint(ptr noundef %90, i32 noundef %91, ptr noundef %92, i32 noundef %93, i32 noundef 4, i32 noundef -2147483648, ptr noundef %18)
  %95 = load i32, ptr %9, align 4
  %96 = add i32 %95, 4
  store i32 %96, ptr %9, align 4
  %97 = load ptr, ptr %10, align 8
  %98 = getelementptr inbounds %struct.mbim_conv_info, ptr %97, i32 0, i32 4
  %99 = load i32, ptr %98, align 8
  %100 = icmp uge i32 %99, 4
  br i1 %100, label %109, label %101

101:                                              ; preds = %54
  %102 = load ptr, ptr %10, align 8
  %103 = getelementptr inbounds %struct.mbim_conv_info, ptr %102, i32 0, i32 4
  %104 = load i32, ptr %103, align 8
  %105 = icmp eq i32 %104, 0
  br i1 %105, label %106, label %110

106:                                              ; preds = %101
  %107 = load i32, ptr @preferred_mbim_extended_version, align 4
  %108 = icmp sge i32 %107, 4
  br i1 %108, label %109, label %110

109:                                              ; preds = %106, %54
  br i1 true, label %111, label %119

110:                                              ; preds = %106, %101
  br i1 false, label %111, label %119

111:                                              ; preds = %110, %109
  %112 = load ptr, ptr %8, align 8
  %113 = load i32, ptr @hf_mbim_ms_slot_id, align 4
  %114 = load ptr, ptr %6, align 8
  %115 = load i32, ptr %9, align 4
  %116 = call ptr @proto_tree_add_item(ptr noundef %112, i32 noundef %113, ptr noundef %114, i32 noundef %115, i32 noundef 4, i32 noundef -2147483648)
  %117 = load i32, ptr %9, align 4
  %118 = add i32 %117, 4
  store i32 %118, ptr %9, align 4
  br label %119

119:                                              ; preds = %111, %110, %109
  %120 = load i32, ptr %18, align 4
  %121 = icmp ne i32 %120, 0
  br i1 %121, label %122, label %160

122:                                              ; preds = %119
  %123 = load ptr, ptr %7, align 8
  %124 = getelementptr inbounds %struct._packet_info, ptr %123, i32 0, i32 50
  %125 = load ptr, ptr %124, align 8
  %126 = call noalias ptr @wmem_array_new(ptr noundef %125, i64 noundef 8)
  store ptr %126, ptr %20, align 8
  %127 = load ptr, ptr %8, align 8
  %128 = load ptr, ptr %6, align 8
  %129 = load i32, ptr %9, align 4
  %130 = load i32, ptr %18, align 4
  %131 = mul i32 8, %130
  %132 = load i32, ptr @ett_mbim_pair_list, align 4
  %133 = call ptr @proto_tree_add_subtree(ptr noundef %127, ptr noundef %128, i32 noundef %129, i32 noundef %131, i32 noundef %132, ptr noundef null, ptr noundef @.str.2582)
  store ptr %133, ptr %11, align 8
  store i32 0, ptr %13, align 4
  br label %134

134:                                              ; preds = %156, %122
  %135 = load i32, ptr %13, align 4
  %136 = load i32, ptr %18, align 4
  %137 = icmp ult i32 %135, %136
  br i1 %137, label %138, label %159

138:                                              ; preds = %134
  %139 = load ptr, ptr %11, align 8
  %140 = load i32, ptr @hf_mbim_subscr_ready_status_tel_nb_offset, align 4
  %141 = load ptr, ptr %6, align 8
  %142 = load i32, ptr %9, align 4
  %143 = getelementptr inbounds %struct.mbim_pair_list, ptr %21, i32 0, i32 0
  %144 = call ptr @proto_tree_add_item_ret_uint(ptr noundef %139, i32 noundef %140, ptr noundef %141, i32 noundef %142, i32 noundef 4, i32 noundef -2147483648, ptr noundef %143)
  %145 = load i32, ptr %9, align 4
  %146 = add i32 %145, 4
  store i32 %146, ptr %9, align 4
  %147 = load ptr, ptr %11, align 8
  %148 = load i32, ptr @hf_mbim_subscr_ready_status_tel_nb_size, align 4
  %149 = load ptr, ptr %6, align 8
  %150 = load i32, ptr %9, align 4
  %151 = getelementptr inbounds %struct.mbim_pair_list, ptr %21, i32 0, i32 1
  %152 = call ptr @proto_tree_add_item_ret_uint(ptr noundef %147, i32 noundef %148, ptr noundef %149, i32 noundef %150, i32 noundef 4, i32 noundef -2147483648, ptr noundef %151)
  %153 = load i32, ptr %9, align 4
  %154 = add i32 %153, 4
  store i32 %154, ptr %9, align 4
  %155 = load ptr, ptr %20, align 8
  call void @wmem_array_append(ptr noundef %155, ptr noundef %21, i32 noundef 1)
  br label %156

156:                                              ; preds = %138
  %157 = load i32, ptr %13, align 4
  %158 = add i32 %157, 1
  store i32 %158, ptr %13, align 4
  br label %134, !llvm.loop !28

159:                                              ; preds = %134
  br label %160

160:                                              ; preds = %159, %119
  %161 = load i32, ptr %14, align 4
  %162 = icmp ne i32 %161, 0
  br i1 %162, label %163, label %195

163:                                              ; preds = %160
  %164 = load i32, ptr %15, align 4
  %165 = icmp ne i32 %164, 0
  br i1 %165, label %166, label %195

166:                                              ; preds = %163
  %167 = load ptr, ptr %8, align 8
  %168 = load i32, ptr @hf_mbim_subscr_ready_status_susbcr_id, align 4
  %169 = load ptr, ptr %6, align 8
  %170 = load i32, ptr %12, align 4
  %171 = load i32, ptr %14, align 4
  %172 = add i32 %170, %171
  %173 = load i32, ptr %15, align 4
  %174 = call ptr @proto_tree_add_item(ptr noundef %167, i32 noundef %168, ptr noundef %169, i32 noundef %172, i32 noundef %173, i32 noundef -2147483644)
  store ptr %174, ptr %19, align 8
  %175 = load ptr, ptr %10, align 8
  %176 = getelementptr inbounds %struct.mbim_conv_info, ptr %175, i32 0, i32 3
  %177 = load i32, ptr %176, align 4
  %178 = icmp eq i32 %177, 2
  br i1 %178, label %179, label %186

179:                                              ; preds = %166
  %180 = load i32, ptr %15, align 4
  %181 = icmp ugt i32 %180, 20
  br i1 %181, label %182, label %186

182:                                              ; preds = %179
  %183 = load ptr, ptr %7, align 8
  %184 = load ptr, ptr %19, align 8
  %185 = call ptr @expert_add_info(ptr noundef %183, ptr noundef %184, ptr noundef @ei_mbim_oversized_string)
  br label %194

186:                                              ; preds = %179, %166
  %187 = load i32, ptr %15, align 4
  %188 = icmp ugt i32 %187, 30
  br i1 %188, label %189, label %193

189:                                              ; preds = %186
  %190 = load ptr, ptr %7, align 8
  %191 = load ptr, ptr %19, align 8
  %192 = call ptr @expert_add_info(ptr noundef %190, ptr noundef %191, ptr noundef @ei_mbim_oversized_string)
  br label %193

193:                                              ; preds = %189, %186
  br label %194

194:                                              ; preds = %193, %182
  br label %195

195:                                              ; preds = %194, %163, %160
  %196 = load i32, ptr %16, align 4
  %197 = icmp ne i32 %196, 0
  br i1 %197, label %198, label %217

198:                                              ; preds = %195
  %199 = load i32, ptr %17, align 4
  %200 = icmp ne i32 %199, 0
  br i1 %200, label %201, label %217

201:                                              ; preds = %198
  %202 = load ptr, ptr %8, align 8
  %203 = load i32, ptr @hf_mbim_subscr_ready_status_sim_icc_id, align 4
  %204 = load ptr, ptr %6, align 8
  %205 = load i32, ptr %12, align 4
  %206 = load i32, ptr %16, align 4
  %207 = add i32 %205, %206
  %208 = load i32, ptr %17, align 4
  %209 = call ptr @proto_tree_add_item(ptr noundef %202, i32 noundef %203, ptr noundef %204, i32 noundef %207, i32 noundef %208, i32 noundef -2147483644)
  store ptr %209, ptr %19, align 8
  %210 = load i32, ptr %17, align 4
  %211 = icmp ugt i32 %210, 40
  br i1 %211, label %212, label %216

212:                                              ; preds = %201
  %213 = load ptr, ptr %7, align 8
  %214 = load ptr, ptr %19, align 8
  %215 = call ptr @expert_add_info(ptr noundef %213, ptr noundef %214, ptr noundef @ei_mbim_oversized_string)
  br label %216

216:                                              ; preds = %212, %201
  br label %217

217:                                              ; preds = %216, %198, %195
  store i32 0, ptr %13, align 4
  br label %218

218:                                              ; preds = %258, %217
  %219 = load i32, ptr %13, align 4
  %220 = load i32, ptr %18, align 4
  %221 = icmp ult i32 %219, %220
  br i1 %221, label %222, label %261

222:                                              ; preds = %218
  %223 = load ptr, ptr %20, align 8
  %224 = load i32, ptr %13, align 4
  %225 = call ptr @wmem_array_index(ptr noundef %223, i32 noundef %224)
  store ptr %225, ptr %22, align 8
  %226 = load ptr, ptr %22, align 8
  %227 = getelementptr inbounds %struct.mbim_pair_list, ptr %226, i32 0, i32 0
  %228 = load i32, ptr %227, align 4
  %229 = icmp ne i32 %228, 0
  br i1 %229, label %230, label %257

230:                                              ; preds = %222
  %231 = load ptr, ptr %22, align 8
  %232 = getelementptr inbounds %struct.mbim_pair_list, ptr %231, i32 0, i32 1
  %233 = load i32, ptr %232, align 4
  %234 = icmp ne i32 %233, 0
  br i1 %234, label %235, label %257

235:                                              ; preds = %230
  %236 = load ptr, ptr %8, align 8
  %237 = load i32, ptr @hf_mbim_subscr_ready_status_tel_nb, align 4
  %238 = load ptr, ptr %6, align 8
  %239 = load i32, ptr %12, align 4
  %240 = load ptr, ptr %22, align 8
  %241 = getelementptr inbounds %struct.mbim_pair_list, ptr %240, i32 0, i32 0
  %242 = load i32, ptr %241, align 4
  %243 = add i32 %239, %242
  %244 = load ptr, ptr %22, align 8
  %245 = getelementptr inbounds %struct.mbim_pair_list, ptr %244, i32 0, i32 1
  %246 = load i32, ptr %245, align 4
  %247 = call ptr @proto_tree_add_item(ptr noundef %236, i32 noundef %237, ptr noundef %238, i32 noundef %243, i32 noundef %246, i32 noundef -2147483644)
  store ptr %247, ptr %19, align 8
  %248 = load ptr, ptr %22, align 8
  %249 = getelementptr inbounds %struct.mbim_pair_list, ptr %248, i32 0, i32 1
  %250 = load i32, ptr %249, align 4
  %251 = icmp ugt i32 %250, 44
  br i1 %251, label %252, label %256

252:                                              ; preds = %235
  %253 = load ptr, ptr %7, align 8
  %254 = load ptr, ptr %19, align 8
  %255 = call ptr @expert_add_info(ptr noundef %253, ptr noundef %254, ptr noundef @ei_mbim_oversized_string)
  br label %256

256:                                              ; preds = %252, %235
  br label %257

257:                                              ; preds = %256, %230, %222
  br label %258

258:                                              ; preds = %257
  %259 = load i32, ptr %13, align 4
  %260 = add i32 %259, 1
  store i32 %260, ptr %13, align 4
  br label %218, !llvm.loop !29

261:                                              ; preds = %218
  ret void
}