; Function Attrs: nounwind uwtable
define internal fastcc void @mbim_dissect_subscriber_ready_status(ptr noundef %0, ptr noundef %1, ptr noundef %2, i32 noundef %3, ptr noundef readonly captures(none) %4) unnamed_addr #0 {
  %6 = alloca i32, align 4
  %7 = alloca i32, align 4
  %8 = alloca i32, align 4
  %9 = alloca i32, align 4
  %10 = alloca i32, align 4
  %11 = alloca %struct.mbim_pair_list, align 4
  %12 = load i32, ptr @hf_mbim_subscr_ready_status_ready_state, align 4
  %13 = tail call ptr @proto_tree_add_item(ptr noundef %2, i32 noundef %12, ptr noundef %0, i32 noundef %3, i32 noundef 4, i32 noundef -2147483648) #10
  %14 = add i32 %3, 4
  %15 = getelementptr inbounds nuw i8, ptr %4, i64 24
  %16 = load i32, ptr %15, align 8
  %17 = icmp ugt i32 %16, 2
  br i1 %17, label %22, label %18

18:                                               ; preds = %5
  %19 = icmp eq i32 %16, 0
  %20 = load i32, ptr @preferred_mbim_extended_version, align 4
  %21 = icmp sgt i32 %20, 2
  %or.cond = select i1 %19, i1 %21, i1 false
  br i1 %or.cond, label %22, label %27

22:                                               ; preds = %5, %18
  %23 = load i32, ptr @hf_mbim_subscr_ready_status_flags, align 4
  %24 = load i32, ptr @ett_mbim_bitmap, align 4
  %25 = tail call ptr @proto_tree_add_bitmask(ptr noundef %2, ptr noundef %0, i32 noundef %14, i32 noundef %23, i32 noundef %24, ptr noundef nonnull @mbim_subscr_ready_status_flags_fields, i32 noundef -2147483648) #10
  %26 = add i32 %3, 8
  br label %27

27:                                               ; preds = %18, %22
  %.0 = phi i32 [ %26, %22 ], [ %14, %18 ]
  %28 = load i32, ptr @hf_mbim_subscr_ready_status_susbcr_id_offset, align 4
  %29 = call ptr @proto_tree_add_item_ret_uint(ptr noundef %2, i32 noundef %28, ptr noundef %0, i32 noundef %.0, i32 noundef 4, i32 noundef -2147483648, ptr noundef nonnull %6) #10
  %30 = add i32 %.0, 4
  %31 = load i32, ptr @hf_mbim_subscr_ready_status_susbcr_id_size, align 4
  %32 = call ptr @proto_tree_add_item_ret_uint(ptr noundef %2, i32 noundef %31, ptr noundef %0, i32 noundef %30, i32 noundef 4, i32 noundef -2147483648, ptr noundef nonnull %7) #10
  %33 = add i32 %.0, 8
  %34 = load i32, ptr @hf_mbim_subscr_ready_status_sim_icc_id_offset, align 4
  %35 = call ptr @proto_tree_add_item_ret_uint(ptr noundef %2, i32 noundef %34, ptr noundef %0, i32 noundef %33, i32 noundef 4, i32 noundef -2147483648, ptr noundef nonnull %8) #10
  %36 = add i32 %.0, 12
  %37 = load i32, ptr @hf_mbim_subscr_ready_status_sim_icc_id_size, align 4
  %38 = call ptr @proto_tree_add_item_ret_uint(ptr noundef %2, i32 noundef %37, ptr noundef %0, i32 noundef %36, i32 noundef 4, i32 noundef -2147483648, ptr noundef nonnull %9) #10
  %39 = add i32 %.0, 16
  %40 = load i32, ptr @hf_mbim_subscr_ready_status_ready_info, align 4
  %41 = call ptr @proto_tree_add_item(ptr noundef %2, i32 noundef %40, ptr noundef %0, i32 noundef %39, i32 noundef 4, i32 noundef -2147483648) #10
  %42 = add i32 %.0, 20
  %43 = load i32, ptr @hf_mbim_subscr_ready_status_elem_count, align 4
  %44 = call ptr @proto_tree_add_item_ret_uint(ptr noundef %2, i32 noundef %43, ptr noundef %0, i32 noundef %42, i32 noundef 4, i32 noundef -2147483648, ptr noundef nonnull %10) #10
  %45 = add i32 %.0, 24
  %46 = load i32, ptr %15, align 8
  %47 = icmp ugt i32 %46, 3
  br i1 %47, label %52, label %48

48:                                               ; preds = %27
  %49 = icmp eq i32 %46, 0
  %50 = load i32, ptr @preferred_mbim_extended_version, align 4
  %51 = icmp sgt i32 %50, 3
  %or.cond3 = select i1 %49, i1 %51, i1 false
  br i1 %or.cond3, label %52, label %56

52:                                               ; preds = %27, %48
  %53 = load i32, ptr @hf_mbim_ms_slot_id, align 4
  %54 = call ptr @proto_tree_add_item(ptr noundef %2, i32 noundef %53, ptr noundef %0, i32 noundef %45, i32 noundef 4, i32 noundef -2147483648) #10
  %55 = add i32 %.0, 28
  br label %56

56:                                               ; preds = %48, %52
  %.1 = phi i32 [ %55, %52 ], [ %45, %48 ]
  %57 = load i32, ptr %10, align 4
  %.not = icmp eq i32 %57, 0
  br i1 %.not, label %.loopexit, label %58

58:                                               ; preds = %56
  %59 = getelementptr inbounds nuw i8, ptr %1, i64 408
  %60 = load ptr, ptr %59, align 8
  %61 = call noalias ptr @wmem_array_new(ptr noundef %60, i64 noundef 8) #10
  %62 = load i32, ptr %10, align 4
  %63 = shl i32 %62, 3
  %64 = load i32, ptr @ett_mbim_pair_list, align 4
  %65 = call ptr @proto_tree_add_subtree(ptr noundef %2, ptr noundef %0, i32 noundef %.1, i32 noundef %63, i32 noundef %64, ptr noundef null, ptr noundef nonnull @.str.2582) #10
  %66 = load i32, ptr %10, align 4
  %.not108 = icmp eq i32 %66, 0
  br i1 %.not108, label %.loopexit, label %.lr.ph

.lr.ph:                                           ; preds = %58
  %67 = getelementptr inbounds nuw i8, ptr %11, i64 4
  br label %68

68:                                               ; preds = %.lr.ph, %68
  %.2105 = phi i32 [ %.1, %.lr.ph ], [ %74, %68 ]
  %.092104 = phi i32 [ 0, %.lr.ph ], [ %75, %68 ]
  %69 = load i32, ptr @hf_mbim_subscr_ready_status_tel_nb_offset, align 4
  %70 = call ptr @proto_tree_add_item_ret_uint(ptr noundef %65, i32 noundef %69, ptr noundef %0, i32 noundef %.2105, i32 noundef 4, i32 noundef -2147483648, ptr noundef nonnull %11) #10
  %71 = add i32 %.2105, 4
  %72 = load i32, ptr @hf_mbim_subscr_ready_status_tel_nb_size, align 4
  %73 = call ptr @proto_tree_add_item_ret_uint(ptr noundef %65, i32 noundef %72, ptr noundef %0, i32 noundef %71, i32 noundef 4, i32 noundef -2147483648, ptr noundef nonnull %67) #10
  %74 = add i32 %.2105, 8
  call void @wmem_array_append(ptr noundef %61, ptr noundef nonnull %11, i32 noundef 1) #10
  %75 = add nuw i32 %.092104, 1
  %76 = load i32, ptr %10, align 4
  %77 = icmp ult i32 %75, %76
  br i1 %77, label %68, label %.loopexit, !llvm.loop !31

.loopexit:                                        ; preds = %68, %58, %56
  %.091 = phi ptr [ null, %56 ], [ %61, %58 ], [ %61, %68 ]
  %78 = load i32, ptr %6, align 4
  %79 = icmp ne i32 %78, 0
  %80 = load i32, ptr %7, align 4
  %81 = icmp ne i32 %80, 0
  %or.cond5 = select i1 %79, i1 %81, i1 false
  br i1 %or.cond5, label %82, label %93

82:                                               ; preds = %.loopexit
  %83 = load i32, ptr @hf_mbim_subscr_ready_status_susbcr_id, align 4
  %84 = add i32 %78, %3
  %85 = call ptr @proto_tree_add_item(ptr noundef %2, i32 noundef %83, ptr noundef %0, i32 noundef %84, i32 noundef %80, i32 noundef -2147483644) #10
  %86 = getelementptr inbounds nuw i8, ptr %4, i64 20
  %87 = load i32, ptr %86, align 4
  %88 = icmp eq i32 %87, 2
  %89 = load i32, ptr %7, align 4
  %90 = icmp ugt i32 %89, 20
  %or.cond7 = select i1 %88, i1 %90, i1 false
  %91 = icmp ugt i32 %89, 30
  %or.cond110 = select i1 %or.cond7, i1 true, i1 %91
  br i1 %or.cond110, label %.sink.split, label %93

.sink.split:                                      ; preds = %82
  %92 = call ptr @expert_add_info(ptr noundef %1, ptr noundef %85, ptr noundef nonnull @ei_mbim_oversized_string) #10
  br label %93

93:                                               ; preds = %82, %.sink.split, %.loopexit
  %94 = load i32, ptr %8, align 4
  %95 = icmp ne i32 %94, 0
  %96 = load i32, ptr %9, align 4
  %97 = icmp ne i32 %96, 0
  %or.cond9 = select i1 %95, i1 %97, i1 false
  br i1 %or.cond9, label %98, label %106

98:                                               ; preds = %93
  %99 = load i32, ptr @hf_mbim_subscr_ready_status_sim_icc_id, align 4
  %100 = add i32 %94, %3
  %101 = call ptr @proto_tree_add_item(ptr noundef %2, i32 noundef %99, ptr noundef %0, i32 noundef %100, i32 noundef %96, i32 noundef -2147483644) #10
  %102 = load i32, ptr %9, align 4
  %103 = icmp ugt i32 %102, 40
  br i1 %103, label %104, label %106

104:                                              ; preds = %98
  %105 = call ptr @expert_add_info(ptr noundef %1, ptr noundef %101, ptr noundef nonnull @ei_mbim_oversized_string) #10
  br label %106

106:                                              ; preds = %98, %104, %93
  %107 = load i32, ptr %10, align 4
  %.not109 = icmp eq i32 %107, 0
  br i1 %.not109, label %._crit_edge, label %.lr.ph107

.lr.ph107:                                        ; preds = %106, %121
  %.193106 = phi i32 [ %122, %121 ], [ 0, %106 ]
  %108 = call ptr @wmem_array_index(ptr noundef %.091, i32 noundef %.193106) #10
  %109 = load i32, ptr %108, align 4
  %.not102 = icmp eq i32 %109, 0
  br i1 %.not102, label %121, label %110

110:                                              ; preds = %.lr.ph107
  %111 = getelementptr inbounds nuw i8, ptr %108, i64 4
  %112 = load i32, ptr %111, align 4
  %.not103 = icmp eq i32 %112, 0
  br i1 %.not103, label %121, label %113

113:                                              ; preds = %110
  %114 = load i32, ptr @hf_mbim_subscr_ready_status_tel_nb, align 4
  %115 = add i32 %109, %3
  %116 = call ptr @proto_tree_add_item(ptr noundef %2, i32 noundef %114, ptr noundef %0, i32 noundef %115, i32 noundef %112, i32 noundef -2147483644) #10
  %117 = load i32, ptr %111, align 4
  %118 = icmp ugt i32 %117, 44
  br i1 %118, label %119, label %121

119:                                              ; preds = %113
  %120 = call ptr @expert_add_info(ptr noundef %1, ptr noundef %116, ptr noundef nonnull @ei_mbim_oversized_string) #10
  br label %121

121:                                              ; preds = %.lr.ph107, %110, %119, %113
  %122 = add nuw i32 %.193106, 1
  %123 = load i32, ptr %10, align 4
  %124 = icmp ult i32 %122, %123
  br i1 %124, label %.lr.ph107, label %._crit_edge, !llvm.loop !32

._crit_edge:                                      ; preds = %121, %106
  ret void
}